target datalayout = "e-m:e-p270:32:32-p271:32:32-p272:64:64-i64:64-i128:128-f80:128-n8:16:32:64-S128"
target triple = "x86_64-pc-linux-gnu"

%struct.sig_params_st = type { ptr, i64, ptr, i64, i32, i32 }
%struct.ossl_param_st = type { ptr, i32, ptr, i64, i64 }

@lib_ctx = internal global ptr null, align 8
@.str.29 = private unnamed_addr constant [30 x i8] c"../openssl/test/ml_dsa_test.c\00", align 1
@.str.44 = private unnamed_addr constant [2 x i8] c"1\00", align 1
@.str.48 = private unnamed_addr constant [17 x i8] c"message-encoding\00", align 1
@.str.53 = private unnamed_addr constant [50 x i8] c"EVP_PKEY_sign_message_init(sctx, sig_alg, params)\00", align 1
@.str.71 = private unnamed_addr constant [52 x i8] c"EVP_PKEY_verify_message_init(vctx, sig_alg, params)\00", align 1
@.str.92 = private unnamed_addr constant [2 x i8] c"0\00", align 1
@.str.104 = private unnamed_addr constant [31 x i8] c"key = do_gen_key(alg, NULL, 0)\00", align 1
@.str.105 = private unnamed_addr constant [15 x i8] c"context-string\00", align 1
@.str.106 = private unnamed_addr constant [54 x i8] c"sctx = EVP_PKEY_CTX_new_from_pkey(lib_ctx, key, NULL)\00", align 1
@.str.107 = private unnamed_addr constant [50 x i8] c"sig_alg = EVP_SIGNATURE_fetch(lib_ctx, alg, NULL)\00", align 1
@.str.108 = private unnamed_addr constant [13 x i8] c"sp->expected\00", align 1
@.str.109 = private unnamed_addr constant [58 x i8] c"EVP_PKEY_sign(sctx, NULL, &sig_len, sp->msg, sp->msg_len)\00", align 1
@.str.110 = private unnamed_addr constant [30 x i8] c"sig = OPENSSL_zalloc(sig_len)\00", align 1
@.str.111 = private unnamed_addr constant [57 x i8] c"EVP_PKEY_sign(sctx, sig, &sig_len, sp->msg, sp->msg_len)\00", align 1
@.str.112 = private unnamed_addr constant [54 x i8] c"vctx = EVP_PKEY_CTX_new_from_pkey(lib_ctx, key, NULL)\00", align 1
@.str.113 = private unnamed_addr constant [58 x i8] c"EVP_PKEY_verify(vctx, sig, sig_len, sp->msg, sp->msg_len)\00", align 1

; Function Attrs: nounwind uwtable
define internal i32 @do_ml_dsa_sign_verify(ptr noundef %0, i32 noundef %1) #0 {
  %3 = alloca ptr, align 8
  %4 = alloca i32, align 4
  %5 = alloca i32, align 4
  %6 = alloca ptr, align 8
  %7 = alloca ptr, align 8
  %8 = alloca ptr, align 8
  %9 = alloca ptr, align 8
  %10 = alloca ptr, align 8
  %11 = alloca ptr, align 8
  %12 = alloca i64, align 8
  %13 = alloca [3 x %struct.ossl_param_st], align 16
  %14 = alloca ptr, align 8
  %15 = alloca %struct.ossl_param_st, align 8
  %16 = alloca %struct.ossl_param_st, align 8
  %17 = alloca %struct.ossl_param_st, align 8
  store ptr %0, ptr %3, align 8, !tbaa !4
  store i32 %1, ptr %4, align 4, !tbaa !9
  call void @llvm.lifetime.start.p0(i64 4, ptr %5) #4
  store i32 0, ptr %5, align 4, !tbaa !9
  call void @llvm.lifetime.start.p0(i64 8, ptr %6) #4
  %18 = load i32, ptr %4, align 4, !tbaa !9
  %19 = sext i32 %18 to i64
  %20 = getelementptr inbounds [12 x %struct.sig_params_st], ptr @sig_params, i64 0, i64 %19
  store ptr %20, ptr %6, align 8, !tbaa !63
  call void @llvm.lifetime.start.p0(i64 8, ptr %7) #4
  store ptr null, ptr %7, align 8, !tbaa !29
  call void @llvm.lifetime.start.p0(i64 8, ptr %8) #4
  store ptr null, ptr %8, align 8, !tbaa !29
  call void @llvm.lifetime.start.p0(i64 8, ptr %9) #4
  store ptr null, ptr %9, align 8, !tbaa !15
  call void @llvm.lifetime.start.p0(i64 8, ptr %10) #4
  store ptr null, ptr %10, align 8, !tbaa !31
  call void @llvm.lifetime.start.p0(i64 8, ptr %11) #4
  store ptr null, ptr %11, align 8, !tbaa !4
  call void @llvm.lifetime.start.p0(i64 8, ptr %12) #4
  store i64 0, ptr %12, align 8, !tbaa !22
  call void @llvm.lifetime.start.p0(i64 120, ptr %13) #4
  call void @llvm.lifetime.start.p0(i64 8, ptr %14) #4
  %21 = getelementptr inbounds [3 x %struct.ossl_param_st], ptr %13, i64 0, i64 0
  store ptr %21, ptr %14, align 8, !tbaa !33
  %22 = load ptr, ptr %3, align 8, !tbaa !4
  %23 = call ptr @do_gen_key(ptr noundef %22, ptr noundef null, i64 noundef 0)
  store ptr %23, ptr %9, align 8, !tbaa !15
  %24 = call i32 @test_ptr(ptr noundef @.str.29, i32 noundef 387, ptr noundef @.str.104, ptr noundef %23)
  %25 = icmp ne i32 %24, 0
  br i1 %25, label %27, label %26

26:                                               ; preds = %2
  br label %150

27:                                               ; preds = %2
  %28 = load ptr, ptr %14, align 8, !tbaa !33
  %29 = getelementptr inbounds nuw %struct.ossl_param_st, ptr %28, i32 1
  store ptr %29, ptr %14, align 8, !tbaa !33
  call void @llvm.lifetime.start.p0(i64 40, ptr %15) #4
  %30 = load ptr, ptr %6, align 8, !tbaa !63
  %31 = getelementptr inbounds nuw %struct.sig_params_st, ptr %30, i32 0, i32 4
  call void @OSSL_PARAM_construct_int(ptr dead_on_unwind writable sret(%struct.ossl_param_st) align 8 %15, ptr noundef @.str.48, ptr noundef %31)
  call void @llvm.memcpy.p0.p0.i64(ptr align 8 %28, ptr align 8 %15, i64 40, i1 false), !tbaa.struct !35
  call void @llvm.lifetime.end.p0(i64 40, ptr %15) #4
  %32 = load ptr, ptr %6, align 8, !tbaa !63
  %33 = getelementptr inbounds nuw %struct.sig_params_st, ptr %32, i32 0, i32 2
  %34 = load ptr, ptr %33, align 8, !tbaa !67
  %35 = icmp ne ptr %34, null
  br i1 %35, label %36, label %45

36:                                               ; preds = %27
  %37 = load ptr, ptr %14, align 8, !tbaa !33
  %38 = getelementptr inbounds nuw %struct.ossl_param_st, ptr %37, i32 1
  store ptr %38, ptr %14, align 8, !tbaa !33
  call void @llvm.lifetime.start.p0(i64 40, ptr %16) #4
  %39 = load ptr, ptr %6, align 8, !tbaa !63
  %40 = getelementptr inbounds nuw %struct.sig_params_st, ptr %39, i32 0, i32 2
  %41 = load ptr, ptr %40, align 8, !tbaa !67
  %42 = load ptr, ptr %6, align 8, !tbaa !63
  %43 = getelementptr inbounds nuw %struct.sig_params_st, ptr %42, i32 0, i32 3
  %44 = load i64, ptr %43, align 8, !tbaa !69
  call void @OSSL_PARAM_construct_octet_string(ptr dead_on_unwind writable sret(%struct.ossl_param_st) align 8 %16, ptr noundef @.str.105, ptr noundef %41, i64 noundef %44)
  call void @llvm.memcpy.p0.p0.i64(ptr align 8 %37, ptr align 8 %16, i64 40, i1 false), !tbaa.struct !35
  call void @llvm.lifetime.end.p0(i64 40, ptr %16) #4
  br label %45

45:                                               ; preds = %36, %27
  %46 = load ptr, ptr %14, align 8, !tbaa !33
  %47 = getelementptr inbounds nuw %struct.ossl_param_st, ptr %46, i32 1
  store ptr %47, ptr %14, align 8, !tbaa !33
  call void @llvm.lifetime.start.p0(i64 40, ptr %17) #4
  call void @OSSL_PARAM_construct_end(ptr dead_on_unwind writable sret(%struct.ossl_param_st) align 8 %17)
  call void @llvm.memcpy.p0.p0.i64(ptr align 8 %46, ptr align 8 %17, i64 40, i1 false), !tbaa.struct !35
  call void @llvm.lifetime.end.p0(i64 40, ptr %17) #4
  %48 = load ptr, ptr @lib_ctx, align 8, !tbaa !43
  %49 = load ptr, ptr %9, align 8, !tbaa !15
  %50 = call ptr @EVP_PKEY_CTX_new_from_pkey(ptr noundef %48, ptr noundef %49, ptr noundef null)
  store ptr %50, ptr %7, align 8, !tbaa !29
  %51 = call i32 @test_ptr(ptr noundef @.str.29, i32 noundef 397, ptr noundef @.str.106, ptr noundef %50)
  %52 = icmp ne i32 %51, 0
  br i1 %52, label %53, label %69

53:                                               ; preds = %45
  %54 = load ptr, ptr @lib_ctx, align 8, !tbaa !43
  %55 = load ptr, ptr %3, align 8, !tbaa !4
  %56 = call ptr @EVP_SIGNATURE_fetch(ptr noundef %54, ptr noundef %55, ptr noundef null)
  store ptr %56, ptr %10, align 8, !tbaa !31
  %57 = call i32 @test_ptr(ptr noundef @.str.29, i32 noundef 398, ptr noundef @.str.107, ptr noundef %56)
  %58 = icmp ne i32 %57, 0
  br i1 %58, label %59, label %69

59:                                               ; preds = %53
  %60 = load ptr, ptr %7, align 8, !tbaa !29
  %61 = load ptr, ptr %10, align 8, !tbaa !31
  %62 = getelementptr inbounds [3 x %struct.ossl_param_st], ptr %13, i64 0, i64 0
  %63 = call i32 @EVP_PKEY_sign_message_init(ptr noundef %60, ptr noundef %61, ptr noundef %62)
  %64 = load ptr, ptr %6, align 8, !tbaa !63
  %65 = getelementptr inbounds nuw %struct.sig_params_st, ptr %64, i32 0, i32 5
  %66 = load i32, ptr %65, align 4, !tbaa !70
  %67 = call i32 @test_int_eq(ptr noundef @.str.29, i32 noundef 399, ptr noundef @.str.53, ptr noundef @.str.108, i32 noundef %63, i32 noundef %66)
  %68 = icmp ne i32 %67, 0
  br i1 %68, label %70, label %69

69:                                               ; preds = %59, %53, %45
  br label %150

70:                                               ; preds = %59
  %71 = load ptr, ptr %6, align 8, !tbaa !63
  %72 = getelementptr inbounds nuw %struct.sig_params_st, ptr %71, i32 0, i32 5
  %73 = load i32, ptr %72, align 4, !tbaa !70
  %74 = icmp eq i32 %73, 0
  br i1 %74, label %75, label %76

75:                                               ; preds = %70
  store i32 1, ptr %5, align 4, !tbaa !9
  br label %150

76:                                               ; preds = %70
  %77 = load ptr, ptr %7, align 8, !tbaa !29
  %78 = load ptr, ptr %6, align 8, !tbaa !63
  %79 = getelementptr inbounds nuw %struct.sig_params_st, ptr %78, i32 0, i32 0
  %80 = load ptr, ptr %79, align 8, !tbaa !71
  %81 = load ptr, ptr %6, align 8, !tbaa !63
  %82 = getelementptr inbounds nuw %struct.sig_params_st, ptr %81, i32 0, i32 1
  %83 = load i64, ptr %82, align 8, !tbaa !72
  %84 = call i32 @EVP_PKEY_sign(ptr noundef %77, ptr noundef null, ptr noundef %12, ptr noundef %80, i64 noundef %83)
  %85 = call i32 @test_int_eq(ptr noundef @.str.29, i32 noundef 405, ptr noundef @.str.109, ptr noundef @.str.44, i32 noundef %84, i32 noundef 1)
  %86 = icmp ne i32 %85, 0
  br i1 %86, label %87, label %92

87:                                               ; preds = %76
  %88 = load i64, ptr %12, align 8, !tbaa !22
  %89 = call noalias ptr @CRYPTO_zalloc(i64 noundef %88, ptr noundef @.str.29, i32 noundef 406)
  store ptr %89, ptr %11, align 8, !tbaa !4
  %90 = call i32 @test_ptr(ptr noundef @.str.29, i32 noundef 406, ptr noundef @.str.110, ptr noundef %89)
  %91 = icmp ne i32 %90, 0
  br i1 %91, label %93, label %92

92:                                               ; preds = %87, %76
  br label %150

93:                                               ; preds = %87
  %94 = load i64, ptr %12, align 8, !tbaa !22
  %95 = add i64 %94, -1
  store i64 %95, ptr %12, align 8, !tbaa !22
  %96 = load ptr, ptr %7, align 8, !tbaa !29
  %97 = load ptr, ptr %11, align 8, !tbaa !4
  %98 = load ptr, ptr %6, align 8, !tbaa !63
  %99 = getelementptr inbounds nuw %struct.sig_params_st, ptr %98, i32 0, i32 0
  %100 = load ptr, ptr %99, align 8, !tbaa !71
  %101 = load ptr, ptr %6, align 8, !tbaa !63
  %102 = getelementptr inbounds nuw %struct.sig_params_st, ptr %101, i32 0, i32 1
  %103 = load i64, ptr %102, align 8, !tbaa !72
  %104 = call i32 @EVP_PKEY_sign(ptr noundef %96, ptr noundef %97, ptr noundef %12, ptr noundef %100, i64 noundef %103)
  %105 = call i32 @test_int_eq(ptr noundef @.str.29, i32 noundef 409, ptr noundef @.str.111, ptr noundef @.str.92, i32 noundef %104, i32 noundef 0)
  %106 = icmp ne i32 %105, 0
  br i1 %106, label %108, label %107

107:                                              ; preds = %93
  br label %150

108:                                              ; preds = %93
  %109 = load i64, ptr %12, align 8, !tbaa !22
  %110 = add i64 %109, 1
  store i64 %110, ptr %12, align 8, !tbaa !22
  %111 = load ptr, ptr %7, align 8, !tbaa !29
  %112 = load ptr, ptr %11, align 8, !tbaa !4
  %113 = load ptr, ptr %6, align 8, !tbaa !63
  %114 = getelementptr inbounds nuw %struct.sig_params_st, ptr %113, i32 0, i32 0
  %115 = load ptr, ptr %114, align 8, !tbaa !71
  %116 = load ptr, ptr %6, align 8, !tbaa !63
  %117 = getelementptr inbounds nuw %struct.sig_params_st, ptr %116, i32 0, i32 1
  %118 = load i64, ptr %117, align 8, !tbaa !72
  %119 = call i32 @EVP_PKEY_sign(ptr noundef %111, ptr noundef %112, ptr noundef %12, ptr noundef %115, i64 noundef %118)
  %120 = call i32 @test_int_eq(ptr noundef @.str.29, i32 noundef 412, ptr noundef @.str.111, ptr noundef @.str.44, i32 noundef %119, i32 noundef 1)
  %121 = icmp ne i32 %120, 0
  br i1 %121, label %122, label %148

122:                                              ; preds = %108
  %123 = load ptr, ptr @lib_ctx, align 8, !tbaa !43
  %124 = load ptr, ptr %9, align 8, !tbaa !15
  %125 = call ptr @EVP_PKEY_CTX_new_from_pkey(ptr noundef %123, ptr noundef %124, ptr noundef null)
  store ptr %125, ptr %8, align 8, !tbaa !29
  %126 = call i32 @test_ptr(ptr noundef @.str.29, i32 noundef 413, ptr noundef @.str.112, ptr noundef %125)
  %127 = icmp ne i32 %126, 0
  br i1 %127, label %128, label %148

128:                                              ; preds = %122
  %129 = load ptr, ptr %8, align 8, !tbaa !29
  %130 = load ptr, ptr %10, align 8, !tbaa !31
  %131 = getelementptr inbounds [3 x %struct.ossl_param_st], ptr %13, i64 0, i64 0
  %132 = call i32 @EVP_PKEY_verify_message_init(ptr noundef %129, ptr noundef %130, ptr noundef %131)
  %133 = call i32 @test_int_eq(ptr noundef @.str.29, i32 noundef 414, ptr noundef @.str.71, ptr noundef @.str.44, i32 noundef %132, i32 noundef 1)
  %134 = icmp ne i32 %133, 0
  br i1 %134, label %135, label %148

135:                                              ; preds = %128
  %136 = load ptr, ptr %8, align 8, !tbaa !29
  %137 = load ptr, ptr %11, align 8, !tbaa !4
  %138 = load i64, ptr %12, align 8, !tbaa !22
  %139 = load ptr, ptr %6, align 8, !tbaa !63
  %140 = getelementptr inbounds nuw %struct.sig_params_st, ptr %139, i32 0, i32 0
  %141 = load ptr, ptr %140, align 8, !tbaa !71
  %142 = load ptr, ptr %6, align 8, !tbaa !63
  %143 = getelementptr inbounds nuw %struct.sig_params_st, ptr %142, i32 0, i32 1
  %144 = load i64, ptr %143, align 8, !tbaa !72
  %145 = call i32 @EVP_PKEY_verify(ptr noundef %136, ptr noundef %137, i64 noundef %138, ptr noundef %141, i64 noundef %144)
  %146 = call i32 @test_int_eq(ptr noundef @.str.29, i32 noundef 415, ptr noundef @.str.113, ptr noundef @.str.44, i32 noundef %145, i32 noundef 1)
  %147 = icmp ne i32 %146, 0
  br i1 %147, label %149, label %148

148:                                              ; preds = %135, %128, %122, %108
  br label %150

149:                                              ; preds = %135
  store i32 1, ptr %5, align 4, !tbaa !9
  br label %150

150:                                              ; preds = %149, %148, %107, %92, %75, %69, %26
  %151 = load ptr, ptr %9, align 8, !tbaa !15
  call void @EVP_PKEY_free(ptr noundef %151)
  %152 = load ptr, ptr %10, align 8, !tbaa !31
  call void @EVP_SIGNATURE_free(ptr noundef %152)
  %153 = load ptr, ptr %11, align 8, !tbaa !4
  call void @CRYPTO_free(ptr noundef %153, ptr noundef @.str.29, i32 noundef 421)
  %154 = load ptr, ptr %7, align 8, !tbaa !29
  call void @EVP_PKEY_CTX_free(ptr noundef %154)
  %155 = load ptr, ptr %8, align 8, !tbaa !29
  call void @EVP_PKEY_CTX_free(ptr noundef %155)
  %156 = load i32, ptr %5, align 4, !tbaa !9
  call void @llvm.lifetime.end.p0(i64 8, ptr %14) #4
  call void @llvm.lifetime.end.p0(i64 120, ptr %13) #4
  call void @llvm.lifetime.end.p0(i64 8, ptr %12) #4
  call void @llvm.lifetime.end.p0(i64 8, ptr %11) #4
  call void @llvm.lifetime.end.p0(i64 8, ptr %10) #4
  call void @llvm.lifetime.end.p0(i64 8, ptr %9) #4
  call void @llvm.lifetime.end.p0(i64 8, ptr %8) #4
  call void @llvm.lifetime.end.p0(i64 8, ptr %7) #4
  call void @llvm.lifetime.end.p0(i64 8, ptr %6) #4
  call void @llvm.lifetime.end.p0(i64 4, ptr %5) #4
  ret i32 %156
}