; Function Attrs: nounwind uwtable
define internal fastcc range(i32 0, 2) i32 @do_ml_dsa_sign_verify(ptr noundef %0, i32 noundef %1) unnamed_addr #1 {
  %3 = alloca i64, align 8
  %4 = alloca [3 x %struct.ossl_param_st], align 16
  %5 = alloca %struct.ossl_param_st, align 8
  %6 = alloca %struct.ossl_param_st, align 8
  %7 = sext i32 %1 to i64
  %8 = getelementptr inbounds [12 x %struct.sig_params_st], ptr @sig_params, i64 0, i64 %7
  call void @llvm.lifetime.start.p0(i64 8, ptr nonnull %3) #5
  store i64 0, ptr %3, align 8, !tbaa !13
  call void @llvm.lifetime.start.p0(i64 120, ptr nonnull %4) #5
  %9 = tail call fastcc ptr @do_gen_key(ptr noundef %0, ptr noundef null, i64 noundef 0)
  %10 = tail call i32 @test_ptr(ptr noundef nonnull @.str.29, i32 noundef 387, ptr noundef nonnull @.str.104, ptr noundef %9) #5
  %.not = icmp eq i32 %10, 0
  br i1 %.not, label %73, label %11

11:                                               ; preds = %2
  %12 = getelementptr inbounds nuw i8, ptr %4, i64 40
  %13 = getelementptr inbounds nuw i8, ptr %8, i64 32
  call void @OSSL_PARAM_construct_int(ptr dead_on_unwind nonnull writable sret(%struct.ossl_param_st) align 8 %4, ptr noundef nonnull @.str.48, ptr noundef nonnull %13) #5
  %14 = getelementptr inbounds nuw i8, ptr %8, i64 16
  %15 = load ptr, ptr %14, align 8, !tbaa !33
  %.not43 = icmp eq ptr %15, null
  br i1 %.not43, label %20, label %16

16:                                               ; preds = %11
  %17 = getelementptr inbounds nuw i8, ptr %4, i64 80
  call void @llvm.lifetime.start.p0(i64 40, ptr nonnull %5) #5
  %18 = getelementptr inbounds nuw i8, ptr %8, i64 24
  %19 = load i64, ptr %18, align 8, !tbaa !35
  call void @OSSL_PARAM_construct_octet_string(ptr dead_on_unwind nonnull writable sret(%struct.ossl_param_st) align 8 %5, ptr noundef nonnull @.str.105, ptr noundef nonnull %15, i64 noundef %19) #5
  call void @llvm.memcpy.p0.p0.i64(ptr noundef nonnull align 8 dereferenceable(40) %12, ptr noundef nonnull align 8 dereferenceable(40) %5, i64 40, i1 false), !tbaa.struct !20
  call void @llvm.lifetime.end.p0(i64 40, ptr nonnull %5) #5
  br label %20

20:                                               ; preds = %16, %11
  %.0 = phi ptr [ %17, %16 ], [ %12, %11 ]
  call void @llvm.lifetime.start.p0(i64 40, ptr nonnull %6) #5
  call void @OSSL_PARAM_construct_end(ptr dead_on_unwind nonnull writable sret(%struct.ossl_param_st) align 8 %6) #5
  call void @llvm.memcpy.p0.p0.i64(ptr noundef nonnull align 8 dereferenceable(40) %.0, ptr noundef nonnull align 8 dereferenceable(40) %6, i64 40, i1 false), !tbaa.struct !20
  call void @llvm.lifetime.end.p0(i64 40, ptr nonnull %6) #5
  %21 = load ptr, ptr @lib_ctx, align 8, !tbaa !27
  %22 = call ptr @EVP_PKEY_CTX_new_from_pkey(ptr noundef %21, ptr noundef %9, ptr noundef null) #5
  %23 = call i32 @test_ptr(ptr noundef nonnull @.str.29, i32 noundef 397, ptr noundef nonnull @.str.106, ptr noundef %22) #5
  %.not44 = icmp eq i32 %23, 0
  br i1 %.not44, label %73, label %24

24:                                               ; preds = %20
  %25 = load ptr, ptr @lib_ctx, align 8, !tbaa !27
  %26 = call ptr @EVP_SIGNATURE_fetch(ptr noundef %25, ptr noundef %0, ptr noundef null) #5
  %27 = call i32 @test_ptr(ptr noundef nonnull @.str.29, i32 noundef 398, ptr noundef nonnull @.str.107, ptr noundef %26) #5
  %.not45 = icmp eq i32 %27, 0
  br i1 %.not45, label %73, label %28

28:                                               ; preds = %24
  %29 = call i32 @EVP_PKEY_sign_message_init(ptr noundef %22, ptr noundef %26, ptr noundef nonnull %4) #5
  %30 = getelementptr inbounds nuw i8, ptr %8, i64 36
  %31 = load i32, ptr %30, align 4, !tbaa !36
  %32 = call i32 @test_int_eq(ptr noundef nonnull @.str.29, i32 noundef 399, ptr noundef nonnull @.str.53, ptr noundef nonnull @.str.108, i32 noundef %29, i32 noundef %31) #5
  %.not46 = icmp eq i32 %32, 0
  br i1 %.not46, label %73, label %33

33:                                               ; preds = %28
  %34 = load i32, ptr %30, align 4, !tbaa !36
  %35 = icmp eq i32 %34, 0
  br i1 %35, label %73, label %36

36:                                               ; preds = %33
  %37 = load ptr, ptr %8, align 8, !tbaa !37
  %38 = getelementptr inbounds nuw i8, ptr %8, i64 8
  %39 = load i64, ptr %38, align 8, !tbaa !38
  %40 = call i32 @EVP_PKEY_sign(ptr noundef %22, ptr noundef null, ptr noundef nonnull %3, ptr noundef %37, i64 noundef %39) #5
  %41 = call i32 @test_int_eq(ptr noundef nonnull @.str.29, i32 noundef 405, ptr noundef nonnull @.str.109, ptr noundef nonnull @.str.44, i32 noundef %40, i32 noundef 1) #5
  %.not47 = icmp eq i32 %41, 0
  br i1 %.not47, label %73, label %42

42:                                               ; preds = %36
  %43 = load i64, ptr %3, align 8, !tbaa !13
  %44 = call noalias ptr @CRYPTO_zalloc(i64 noundef %43, ptr noundef nonnull @.str.29, i32 noundef 406) #5
  %45 = call i32 @test_ptr(ptr noundef nonnull @.str.29, i32 noundef 406, ptr noundef nonnull @.str.110, ptr noundef %44) #5
  %.not48 = icmp eq i32 %45, 0
  br i1 %.not48, label %73, label %46

46:                                               ; preds = %42
  %47 = load i64, ptr %3, align 8, !tbaa !13
  %48 = add i64 %47, -1
  store i64 %48, ptr %3, align 8, !tbaa !13
  %49 = load ptr, ptr %8, align 8, !tbaa !37
  %50 = load i64, ptr %38, align 8, !tbaa !38
  %51 = call i32 @EVP_PKEY_sign(ptr noundef %22, ptr noundef %44, ptr noundef nonnull %3, ptr noundef %49, i64 noundef %50) #5
  %52 = call i32 @test_int_eq(ptr noundef nonnull @.str.29, i32 noundef 409, ptr noundef nonnull @.str.111, ptr noundef nonnull @.str.92, i32 noundef %51, i32 noundef 0) #5
  %.not49 = icmp eq i32 %52, 0
  br i1 %.not49, label %73, label %53

53:                                               ; preds = %46
  %54 = load i64, ptr %3, align 8, !tbaa !13
  %55 = add i64 %54, 1
  store i64 %55, ptr %3, align 8, !tbaa !13
  %56 = load ptr, ptr %8, align 8, !tbaa !37
  %57 = load i64, ptr %38, align 8, !tbaa !38
  %58 = call i32 @EVP_PKEY_sign(ptr noundef %22, ptr noundef %44, ptr noundef nonnull %3, ptr noundef %56, i64 noundef %57) #5
  %59 = call i32 @test_int_eq(ptr noundef nonnull @.str.29, i32 noundef 412, ptr noundef nonnull @.str.111, ptr noundef nonnull @.str.44, i32 noundef %58, i32 noundef 1) #5
  %.not50 = icmp eq i32 %59, 0
  br i1 %.not50, label %73, label %60

60:                                               ; preds = %53
  %61 = load ptr, ptr @lib_ctx, align 8, !tbaa !27
  %62 = call ptr @EVP_PKEY_CTX_new_from_pkey(ptr noundef %61, ptr noundef %9, ptr noundef null) #5
  %63 = call i32 @test_ptr(ptr noundef nonnull @.str.29, i32 noundef 413, ptr noundef nonnull @.str.112, ptr noundef %62) #5
  %.not51 = icmp eq i32 %63, 0
  br i1 %.not51, label %73, label %64

64:                                               ; preds = %60
  %65 = call i32 @EVP_PKEY_verify_message_init(ptr noundef %62, ptr noundef %26, ptr noundef nonnull %4) #5
  %66 = call i32 @test_int_eq(ptr noundef nonnull @.str.29, i32 noundef 414, ptr noundef nonnull @.str.71, ptr noundef nonnull @.str.44, i32 noundef %65, i32 noundef 1) #5
  %.not52 = icmp eq i32 %66, 0
  br i1 %.not52, label %73, label %67

67:                                               ; preds = %64
  %68 = load i64, ptr %3, align 8, !tbaa !13
  %69 = load ptr, ptr %8, align 8, !tbaa !37
  %70 = load i64, ptr %38, align 8, !tbaa !38
  %71 = call i32 @EVP_PKEY_verify(ptr noundef %62, ptr noundef %44, i64 noundef %68, ptr noundef %69, i64 noundef %70) #5
  %72 = call i32 @test_int_eq(ptr noundef nonnull @.str.29, i32 noundef 415, ptr noundef nonnull @.str.113, ptr noundef nonnull @.str.44, i32 noundef %71, i32 noundef 1) #5
  %.not53 = icmp ne i32 %72, 0
  %spec.select = zext i1 %.not53 to i32
  br label %73

73:                                               ; preds = %67, %33, %53, %60, %64, %46, %36, %42, %20, %24, %28, %2
  %.042 = phi i32 [ 0, %64 ], [ 0, %60 ], [ 0, %53 ], [ 0, %46 ], [ 0, %42 ], [ 0, %36 ], [ 0, %28 ], [ 0, %24 ], [ 0, %20 ], [ 0, %2 ], [ 1, %33 ], [ %spec.select, %67 ]
  %.041 = phi ptr [ %22, %64 ], [ %22, %60 ], [ %22, %53 ], [ %22, %46 ], [ %22, %42 ], [ %22, %36 ], [ %22, %28 ], [ %22, %24 ], [ %22, %20 ], [ null, %2 ], [ %22, %33 ], [ %22, %67 ]
  %.040 = phi ptr [ %62, %64 ], [ %62, %60 ], [ null, %53 ], [ null, %46 ], [ null, %42 ], [ null, %36 ], [ null, %28 ], [ null, %24 ], [ null, %20 ], [ null, %2 ], [ null, %33 ], [ %62, %67 ]
  %.039 = phi ptr [ %26, %64 ], [ %26, %60 ], [ %26, %53 ], [ %26, %46 ], [ %26, %42 ], [ %26, %36 ], [ %26, %28 ], [ %26, %24 ], [ null, %20 ], [ null, %2 ], [ %26, %33 ], [ %26, %67 ]
  %.038 = phi ptr [ %44, %64 ], [ %44, %60 ], [ %44, %53 ], [ %44, %46 ], [ %44, %42 ], [ null, %36 ], [ null, %28 ], [ null, %24 ], [ null, %20 ], [ null, %2 ], [ null, %33 ], [ %44, %67 ]
  call void @EVP_PKEY_free(ptr noundef %9) #5
  call void @EVP_SIGNATURE_free(ptr noundef %.039) #5
  call void @CRYPTO_free(ptr noundef %.038, ptr noundef nonnull @.str.29, i32 noundef 421) #5
  call void @EVP_PKEY_CTX_free(ptr noundef %.041) #5
  call void @EVP_PKEY_CTX_free(ptr noundef %.040) #5
  call void @llvm.lifetime.end.p0(i64 120, ptr nonnull %4) #5
  call void @llvm.lifetime.end.p0(i64 8, ptr nonnull %3) #5
  ret i32 %.042
}